
key_led:     file format elf32-littlearm


Disassembly of section .text:

70003000 <_start>:
70003000:	e92d4000 	push	{lr}
70003004:	eb000000 	bl	7000300c <main>
70003008:	e8bd8000 	pop	{pc}

7000300c <main>:
7000300c:	e92d4800 	push	{fp, lr}
70003010:	e28db004 	add	fp, sp, #4
70003014:	eb000056 	bl	70003174 <init_key_led>
70003018:	e59f313c 	ldr	r3, [pc, #316]	; 7000315c <main+0x150>
7000301c:	e5933000 	ldr	r3, [r3]
70003020:	e1a00003 	mov	r0, r3
70003024:	e3a01002 	mov	r1, #2
70003028:	eb000080 	bl	70003230 <key_test>
7000302c:	e1a03000 	mov	r3, r0
70003030:	e3530000 	cmp	r3, #0
70003034:	1a000008 	bne	7000305c <main+0x50>
70003038:	e59f3120 	ldr	r3, [pc, #288]	; 70003160 <main+0x154>
7000303c:	e59f0120 	ldr	r0, [pc, #288]	; 70003164 <main+0x158>
70003040:	e12fff33 	blx	r3
70003044:	e3a00000 	mov	r0, #0
70003048:	e3a01000 	mov	r1, #0
7000304c:	eb000088 	bl	70003274 <led_driver>
70003050:	e3a00002 	mov	r0, #2
70003054:	eb000057 	bl	700031b8 <delay>
70003058:	ea000002 	b	70003068 <main+0x5c>
7000305c:	e3a00001 	mov	r0, #1
70003060:	e3a01000 	mov	r1, #0
70003064:	eb000082 	bl	70003274 <led_driver>
70003068:	e59f30ec 	ldr	r3, [pc, #236]	; 7000315c <main+0x150>
7000306c:	e5933000 	ldr	r3, [r3]
70003070:	e1a00003 	mov	r0, r3
70003074:	e3a01003 	mov	r1, #3
70003078:	eb00006c 	bl	70003230 <key_test>
7000307c:	e1a03000 	mov	r3, r0
70003080:	e3530000 	cmp	r3, #0
70003084:	1a000008 	bne	700030ac <main+0xa0>
70003088:	e59f30d0 	ldr	r3, [pc, #208]	; 70003160 <main+0x154>
7000308c:	e59f00d4 	ldr	r0, [pc, #212]	; 70003168 <main+0x15c>
70003090:	e12fff33 	blx	r3
70003094:	e3a00000 	mov	r0, #0
70003098:	e3a01001 	mov	r1, #1
7000309c:	eb000074 	bl	70003274 <led_driver>
700030a0:	e3a00002 	mov	r0, #2
700030a4:	eb000043 	bl	700031b8 <delay>
700030a8:	ea000002 	b	700030b8 <main+0xac>
700030ac:	e3a00001 	mov	r0, #1
700030b0:	e3a01001 	mov	r1, #1
700030b4:	eb00006e 	bl	70003274 <led_driver>
700030b8:	e59f309c 	ldr	r3, [pc, #156]	; 7000315c <main+0x150>
700030bc:	e5933000 	ldr	r3, [r3]
700030c0:	e1a00003 	mov	r0, r3
700030c4:	e3a01004 	mov	r1, #4
700030c8:	eb000058 	bl	70003230 <key_test>
700030cc:	e1a03000 	mov	r3, r0
700030d0:	e3530000 	cmp	r3, #0
700030d4:	1a000008 	bne	700030fc <main+0xf0>
700030d8:	e59f3080 	ldr	r3, [pc, #128]	; 70003160 <main+0x154>
700030dc:	e59f0088 	ldr	r0, [pc, #136]	; 7000316c <main+0x160>
700030e0:	e12fff33 	blx	r3
700030e4:	e3a00000 	mov	r0, #0
700030e8:	e3a01002 	mov	r1, #2
700030ec:	eb000060 	bl	70003274 <led_driver>
700030f0:	e3a00002 	mov	r0, #2
700030f4:	eb00002f 	bl	700031b8 <delay>
700030f8:	ea000002 	b	70003108 <main+0xfc>
700030fc:	e3a00001 	mov	r0, #1
70003100:	e3a01002 	mov	r1, #2
70003104:	eb00005a 	bl	70003274 <led_driver>
70003108:	e59f304c 	ldr	r3, [pc, #76]	; 7000315c <main+0x150>
7000310c:	e5933000 	ldr	r3, [r3]
70003110:	e1a00003 	mov	r0, r3
70003114:	e3a01005 	mov	r1, #5
70003118:	eb000044 	bl	70003230 <key_test>
7000311c:	e1a03000 	mov	r3, r0
70003120:	e3530000 	cmp	r3, #0
70003124:	1a000008 	bne	7000314c <main+0x140>
70003128:	e59f3030 	ldr	r3, [pc, #48]	; 70003160 <main+0x154>
7000312c:	e59f003c 	ldr	r0, [pc, #60]	; 70003170 <main+0x164>
70003130:	e12fff33 	blx	r3
70003134:	e3a00000 	mov	r0, #0
70003138:	e3a01003 	mov	r1, #3
7000313c:	eb00004c 	bl	70003274 <led_driver>
70003140:	e3a00002 	mov	r0, #2
70003144:	eb00001b 	bl	700031b8 <delay>
70003148:	eaffffb2 	b	70003018 <main+0xc>
7000314c:	e3a00001 	mov	r0, #1
70003150:	e3a01003 	mov	r1, #3
70003154:	eb000046 	bl	70003274 <led_driver>
70003158:	eaffffae 	b	70003018 <main+0xc>
7000315c:	11000c64 	tstne	r0, r4, ror #24
70003160:	43e11a2c 	mvnmi	r1, #180224	; 0x2c000
70003164:	70003300 	andvc	r3, r0, r0, lsl #6
70003168:	7000330c 	andvc	r3, r0, ip, lsl #6
7000316c:	70003318 	andvc	r3, r0, r8, lsl r3
70003170:	70003324 	andvc	r3, r0, r4, lsr #6

70003174 <init_key_led>:
70003174:	e52db004 	push	{fp}		; (str fp, [sp, #-4]!)
70003178:	e28db000 	add	fp, sp, #0
7000317c:	e59f2028 	ldr	r2, [pc, #40]	; 700031ac <init_key_led+0x38>
70003180:	e59f3024 	ldr	r3, [pc, #36]	; 700031ac <init_key_led+0x38>
70003184:	e5933000 	ldr	r3, [r3]
70003188:	e3c338ff 	bic	r3, r3, #16711680	; 0xff0000
7000318c:	e3c33cff 	bic	r3, r3, #65280	; 0xff00
70003190:	e5823000 	str	r3, [r2]
70003194:	e59f3014 	ldr	r3, [pc, #20]	; 700031b0 <init_key_led+0x3c>
70003198:	e59f2014 	ldr	r2, [pc, #20]	; 700031b4 <init_key_led+0x40>
7000319c:	e5832000 	str	r2, [r3]
700031a0:	e28bd000 	add	sp, fp, #0
700031a4:	e8bd0800 	pop	{fp}
700031a8:	e12fff1e 	bx	lr
700031ac:	11000c60 	tstne	r0, r0, ror #24
700031b0:	110002e0 	smlattne	r0, r0, r2, r0
700031b4:	00001111 	andeq	r1, r0, r1, lsl r1

700031b8 <delay>:
700031b8:	e52db004 	push	{fp}		; (str fp, [sp, #-4]!)
700031bc:	e28db000 	add	fp, sp, #0
700031c0:	e24dd014 	sub	sp, sp, #20
700031c4:	e50b0010 	str	r0, [fp, #-16]
700031c8:	e3a03000 	mov	r3, #0
700031cc:	e50b3008 	str	r3, [fp, #-8]
700031d0:	ea00000c 	b	70003208 <delay+0x50>
700031d4:	e3a03000 	mov	r3, #0
700031d8:	e50b300c 	str	r3, [fp, #-12]
700031dc:	ea000002 	b	700031ec <delay+0x34>
700031e0:	e51b300c 	ldr	r3, [fp, #-12]
700031e4:	e2833001 	add	r3, r3, #1
700031e8:	e50b300c 	str	r3, [fp, #-12]
700031ec:	e51b200c 	ldr	r2, [fp, #-12]
700031f0:	e59f3034 	ldr	r3, [pc, #52]	; 7000322c <delay+0x74>
700031f4:	e1520003 	cmp	r2, r3
700031f8:	dafffff8 	ble	700031e0 <delay+0x28>
700031fc:	e51b3008 	ldr	r3, [fp, #-8]
70003200:	e2833001 	add	r3, r3, #1
70003204:	e50b3008 	str	r3, [fp, #-8]
70003208:	e51b2008 	ldr	r2, [fp, #-8]
7000320c:	e51b3010 	ldr	r3, [fp, #-16]
70003210:	e3a01ffa 	mov	r1, #1000	; 0x3e8
70003214:	e0030391 	mul	r3, r1, r3
70003218:	e1520003 	cmp	r2, r3
7000321c:	3affffec 	bcc	700031d4 <delay+0x1c>
70003220:	e28bd000 	add	sp, fp, #0
70003224:	e8bd0800 	pop	{fp}
70003228:	e12fff1e 	bx	lr
7000322c:	000003e7 	andeq	r0, r0, r7, ror #7

70003230 <key_test>:
70003230:	e52db004 	push	{fp}		; (str fp, [sp, #-4]!)
70003234:	e28db000 	add	fp, sp, #0
70003238:	e24dd00c 	sub	sp, sp, #12
7000323c:	e50b0008 	str	r0, [fp, #-8]
70003240:	e50b100c 	str	r1, [fp, #-12]
70003244:	e3a02001 	mov	r2, #1
70003248:	e51b300c 	ldr	r3, [fp, #-12]
7000324c:	e1a03312 	lsl	r3, r2, r3
70003250:	e1a02003 	mov	r2, r3
70003254:	e51b3008 	ldr	r3, [fp, #-8]
70003258:	e0022003 	and	r2, r2, r3
7000325c:	e51b300c 	ldr	r3, [fp, #-12]
70003260:	e1a03332 	lsr	r3, r2, r3
70003264:	e1a00003 	mov	r0, r3
70003268:	e28bd000 	add	sp, fp, #0
7000326c:	e8bd0800 	pop	{fp}
70003270:	e12fff1e 	bx	lr

70003274 <led_driver>:
70003274:	e52db004 	push	{fp}		; (str fp, [sp, #-4]!)
70003278:	e28db000 	add	fp, sp, #0
7000327c:	e24dd00c 	sub	sp, sp, #12
70003280:	e50b0008 	str	r0, [fp, #-8]
70003284:	e50b100c 	str	r1, [fp, #-12]
70003288:	e51b3008 	ldr	r3, [fp, #-8]
7000328c:	e3530000 	cmp	r3, #0
70003290:	1a000009 	bne	700032bc <led_driver+0x48>
70003294:	e59f3060 	ldr	r3, [pc, #96]	; 700032fc <led_driver+0x88>
70003298:	e59f205c 	ldr	r2, [pc, #92]	; 700032fc <led_driver+0x88>
7000329c:	e5921000 	ldr	r1, [r2]
700032a0:	e3a00001 	mov	r0, #1
700032a4:	e51b200c 	ldr	r2, [fp, #-12]
700032a8:	e1a02210 	lsl	r2, r0, r2
700032ac:	e1e02002 	mvn	r2, r2
700032b0:	e0012002 	and	r2, r1, r2
700032b4:	e5832000 	str	r2, [r3]
700032b8:	ea00000a 	b	700032e8 <led_driver+0x74>
700032bc:	e51b3008 	ldr	r3, [fp, #-8]
700032c0:	e3530001 	cmp	r3, #1
700032c4:	1a000007 	bne	700032e8 <led_driver+0x74>
700032c8:	e59f302c 	ldr	r3, [pc, #44]	; 700032fc <led_driver+0x88>
700032cc:	e59f2028 	ldr	r2, [pc, #40]	; 700032fc <led_driver+0x88>
700032d0:	e5921000 	ldr	r1, [r2]
700032d4:	e3a00001 	mov	r0, #1
700032d8:	e51b200c 	ldr	r2, [fp, #-12]
700032dc:	e1a02210 	lsl	r2, r0, r2
700032e0:	e1812002 	orr	r2, r1, r2
700032e4:	e5832000 	str	r2, [r3]
700032e8:	e3a03000 	mov	r3, #0
700032ec:	e1a00003 	mov	r0, r3
700032f0:	e28bd000 	add	sp, fp, #0
700032f4:	e8bd0800 	pop	{fp}
700032f8:	e12fff1e 	bx	lr
700032fc:	110002e4 	smlattne	r0, r4, r2, r0

Disassembly of section .rodata:

70003300 <.rodata>:
70003300:	6920316b 	stmdbvs	r0!, {r0, r1, r3, r5, r6, r8, ip, sp}
70003304:	6f642073 	svcvs	0x00642073
70003308:	000a6e77 	andeq	r6, sl, r7, ror lr
7000330c:	6920326b 	stmdbvs	r0!, {r0, r1, r3, r5, r6, r9, ip, sp}
70003310:	6f642073 	svcvs	0x00642073
70003314:	000a6e77 	andeq	r6, sl, r7, ror lr
70003318:	6920336b 	stmdbvs	r0!, {r0, r1, r3, r5, r6, r8, r9, ip, sp}
7000331c:	6f642073 	svcvs	0x00642073
70003320:	000a6e77 	andeq	r6, sl, r7, ror lr
70003324:	6920346b 	stmdbvs	r0!, {r0, r1, r3, r5, r6, sl, ip, sp}
70003328:	6f642073 	svcvs	0x00642073
7000332c:	000a6e77 	andeq	r6, sl, r7, ror lr

Disassembly of section .ARM.attributes:

00000000 <.ARM.attributes>:
   0:	00003341 	andeq	r3, r0, r1, asr #6
   4:	61656100 	cmnvs	r5, r0, lsl #2
   8:	01006962 	tsteq	r0, r2, ror #18
   c:	00000029 	andeq	r0, r0, r9, lsr #32
  10:	4d524105 	ldfmie	f4, [r2, #-20]	; 0xffffffec
  14:	36373131 	undefined instruction 0x36373131
  18:	2d465a4a 	vstrcs	s11, [r6, #-296]	; 0xfffffed8
  1c:	09060053 	stmdbeq	r6, {r0, r1, r4, r6}
  20:	01090108 	tsteq	r9, r8, lsl #2
  24:	0412020a 	ldreq	r0, [r2], #-522	; 0x20a
  28:	01150114 	tsteq	r5, r4, lsl r1
  2c:	01180317 	tsteq	r8, r7, lsl r3
  30:	031b021a 	tsteq	fp, #-1610612735	; 0xa0000001

Disassembly of section .comment:

00000000 <.comment>:
   0:	3a434347 	bcc	10d0d24 <_start-0x6ef322dc>
   4:	74632820 	strbtvc	r2, [r3], #-2080	; 0x820
   8:	312d676e 	teqcc	sp, lr, ror #14
   c:	312e382e 	teqcc	lr, lr, lsr #16
  10:	2941462d 	stmdbcs	r1, {r0, r2, r3, r5, r9, sl, lr}^
  14:	352e3420 	strcc	r3, [lr, #-1056]!	; 0x420
  18:	Address 0x00000018 is out of bounds.

